; ModuleID = '7/309.c'
source_filename = "7/309.c"
target datalayout = "e-m:e-p270:32:32-p271:32:32-p272:64:64-i64:64-f80:128-n8:16:32:64-S128"
target triple = "x86_64-pc-linux-gnu"

@.str = private unnamed_addr constant [3 x i8] c"%s\00", align 1
@.str.1 = private unnamed_addr constant [3 x i8] c"%c\00", align 1

; Function Attrs: noinline nounwind uwtable
define dso_local i32 @main() #0 {
  %1 = alloca i32, align 4
  %2 = alloca [256 x i8], align 16
  %3 = alloca [256 x i8], align 16
  %4 = alloca [256 x i8], align 16
  %5 = alloca [256 x i8], align 16
  %6 = alloca i32, align 4
  %7 = alloca i32, align 4
  %8 = alloca i32, align 4
  %9 = alloca i32, align 4
  %10 = alloca i32, align 4
  %11 = alloca i32, align 4
  %12 = alloca i32, align 4
  %13 = alloca i32, align 4
  %14 = alloca i32, align 4
  store i32 0, i32* %1, align 4
  store i32 0, i32* %6, align 4
  %15 = getelementptr inbounds [256 x i8], [256 x i8]* %2, i64 0, i64 0
  %16 = call i32 (i8*, ...) @__isoc99_scanf(i8* getelementptr inbounds ([3 x i8], [3 x i8]* @.str, i64 0, i64 0), i8* %15)
  %17 = getelementptr inbounds [256 x i8], [256 x i8]* %3, i64 0, i64 0
  %18 = call i32 (i8*, ...) @__isoc99_scanf(i8* getelementptr inbounds ([3 x i8], [3 x i8]* @.str, i64 0, i64 0), i8* %17)
  %19 = getelementptr inbounds [256 x i8], [256 x i8]* %4, i64 0, i64 0
  %20 = call i32 (i8*, ...) @__isoc99_scanf(i8* getelementptr inbounds ([3 x i8], [3 x i8]* @.str, i64 0, i64 0), i8* %19)
  %21 = getelementptr inbounds [256 x i8], [256 x i8]* %2, i64 0, i64 0
  %22 = call i64 @strlen(i8* %21) #3
  %23 = trunc i64 %22 to i32
  store i32 %23, i32* %8, align 4
  %24 = getelementptr inbounds [256 x i8], [256 x i8]* %3, i64 0, i64 0
  %25 = call i64 @strlen(i8* %24) #3
  %26 = trunc i64 %25 to i32
  store i32 %26, i32* %9, align 4
  %27 = getelementptr inbounds [256 x i8], [256 x i8]* %4, i64 0, i64 0
  %28 = call i64 @strlen(i8* %27) #3
  %29 = trunc i64 %28 to i32
  store i32 %29, i32* %10, align 4
  store i32 0, i32* %11, align 4
  br label %30

30:                                               ; preds = %118, %0
  %31 = load i32, i32* %11, align 4
  %32 = load i32, i32* %8, align 4
  %33 = load i32, i32* %9, align 4
  %34 = sub nsw i32 %32, %33
  %35 = icmp sle i32 %31, %34
  br i1 %35, label %36, label %121

36:                                               ; preds = %30
  store i32 1, i32* %7, align 4
  store i32 0, i32* %12, align 4
  br label %37

37:                                               ; preds = %59, %36
  %38 = load i32, i32* %12, align 4
  %39 = sext i32 %38 to i64
  %40 = getelementptr inbounds [256 x i8], [256 x i8]* %3, i64 0, i64 0
  %41 = call i64 @strlen(i8* %40) #3
  %42 = icmp ult i64 %39, %41
  br i1 %42, label %43, label %62

43:                                               ; preds = %37
  %44 = load i32, i32* %11, align 4
  %45 = load i32, i32* %12, align 4
  %46 = add nsw i32 %44, %45
  %47 = sext i32 %46 to i64
  %48 = getelementptr inbounds [256 x i8], [256 x i8]* %2, i64 0, i64 %47
  %49 = load i8, i8* %48, align 1
  %50 = sext i8 %49 to i32
  %51 = load i32, i32* %12, align 4
  %52 = sext i32 %51 to i64
  %53 = getelementptr inbounds [256 x i8], [256 x i8]* %3, i64 0, i64 %52
  %54 = load i8, i8* %53, align 1
  %55 = sext i8 %54 to i32
  %56 = icmp ne i32 %50, %55
  br i1 %56, label %57, label %58

57:                                               ; preds = %43
  store i32 0, i32* %7, align 4
  br label %62

58:                                               ; preds = %43
  br label %59

59:                                               ; preds = %58
  %60 = load i32, i32* %12, align 4
  %61 = add nsw i32 %60, 1
  store i32 %61, i32* %12, align 4
  br label %37

62:                                               ; preds = %57, %37
  %63 = load i32, i32* %7, align 4
  %64 = icmp ne i32 %63, 0
  br i1 %64, label %65, label %109

65:                                               ; preds = %62
  store i32 1, i32* %6, align 4
  %66 = load i32, i32* %11, align 4
  store i32 %66, i32* %13, align 4
  br label %67

67:                                               ; preds = %83, %65
  %68 = load i32, i32* %13, align 4
  %69 = load i32, i32* %11, align 4
  %70 = load i32, i32* %10, align 4
  %71 = add nsw i32 %69, %70
  %72 = icmp slt i32 %68, %71
  br i1 %72, label %73, label %86

73:                                               ; preds = %67
  %74 = load i32, i32* %13, align 4
  %75 = load i32, i32* %11, align 4
  %76 = sub nsw i32 %74, %75
  %77 = sext i32 %76 to i64
  %78 = getelementptr inbounds [256 x i8], [256 x i8]* %4, i64 0, i64 %77
  %79 = load i8, i8* %78, align 1
  %80 = load i32, i32* %13, align 4
  %81 = sext i32 %80 to i64
  %82 = getelementptr inbounds [256 x i8], [256 x i8]* %5, i64 0, i64 %81
  store i8 %79, i8* %82, align 1
  br label %83

83:                                               ; preds = %73
  %84 = load i32, i32* %13, align 4
  %85 = add nsw i32 %84, 1
  store i32 %85, i32* %13, align 4
  br label %67

86:                                               ; preds = %67
  %87 = load i32, i32* %11, align 4
  %88 = load i32, i32* %9, align 4
  %89 = add nsw i32 %87, %88
  store i32 %89, i32* %6, align 4
  %90 = load i32, i32* %13, align 4
  store i32 %90, i32* %11, align 4
  br label %91

91:                                               ; preds = %103, %86
  %92 = load i32, i32* %6, align 4
  %93 = load i32, i32* %8, align 4
  %94 = icmp slt i32 %92, %93
  br i1 %94, label %95, label %108

95:                                               ; preds = %91
  %96 = load i32, i32* %6, align 4
  %97 = sext i32 %96 to i64
  %98 = getelementptr inbounds [256 x i8], [256 x i8]* %2, i64 0, i64 %97
  %99 = load i8, i8* %98, align 1
  %100 = load i32, i32* %11, align 4
  %101 = sext i32 %100 to i64
  %102 = getelementptr inbounds [256 x i8], [256 x i8]* %5, i64 0, i64 %101
  store i8 %99, i8* %102, align 1
  br label %103

103:                                              ; preds = %95
  %104 = load i32, i32* %6, align 4
  %105 = add nsw i32 %104, 1
  store i32 %105, i32* %6, align 4
  %106 = load i32, i32* %11, align 4
  %107 = add nsw i32 %106, 1
  store i32 %107, i32* %11, align 4
  br label %91

108:                                              ; preds = %91
  br label %121

109:                                              ; preds = %62
  %110 = load i32, i32* %11, align 4
  %111 = sext i32 %110 to i64
  %112 = getelementptr inbounds [256 x i8], [256 x i8]* %2, i64 0, i64 %111
  %113 = load i8, i8* %112, align 1
  %114 = load i32, i32* %11, align 4
  %115 = sext i32 %114 to i64
  %116 = getelementptr inbounds [256 x i8], [256 x i8]* %5, i64 0, i64 %115
  store i8 %113, i8* %116, align 1
  br label %117

117:                                              ; preds = %109
  br label %118

118:                                              ; preds = %117
  %119 = load i32, i32* %11, align 4
  %120 = add nsw i32 %119, 1
  store i32 %120, i32* %11, align 4
  br label %30

121:                                              ; preds = %108, %30
  %122 = load i32, i32* %6, align 4
  %123 = icmp ne i32 %122, 0
  br i1 %123, label %124, label %148

124:                                              ; preds = %121
  store i32 0, i32* %14, align 4
  br label %125

125:                                              ; preds = %144, %124
  %126 = load i32, i32* %14, align 4
  %127 = sext i32 %126 to i64
  %128 = getelementptr inbounds [256 x i8], [256 x i8]* %2, i64 0, i64 0
  %129 = call i64 @strlen(i8* %128) #3
  %130 = getelementptr inbounds [256 x i8], [256 x i8]* %3, i64 0, i64 0
  %131 = call i64 @strlen(i8* %130) #3
  %132 = sub i64 %129, %131
  %133 = getelementptr inbounds [256 x i8], [256 x i8]* %4, i64 0, i64 0
  %134 = call i64 @strlen(i8* %133) #3
  %135 = add i64 %132, %134
  %136 = icmp ult i64 %127, %135
  br i1 %136, label %137, label %147

137:                                              ; preds = %125
  %138 = load i32, i32* %14, align 4
  %139 = sext i32 %138 to i64
  %140 = getelementptr inbounds [256 x i8], [256 x i8]* %5, i64 0, i64 %139
  %141 = load i8, i8* %140, align 1
  %142 = sext i8 %141 to i32
  %143 = call i32 (i8*, ...) @printf(i8* getelementptr inbounds ([3 x i8], [3 x i8]* @.str.1, i64 0, i64 0), i32 %142)
  br label %144

144:                                              ; preds = %137
  %145 = load i32, i32* %14, align 4
  %146 = add nsw i32 %145, 1
  store i32 %146, i32* %14, align 4
  br label %125

147:                                              ; preds = %125
  br label %151

148:                                              ; preds = %121
  %149 = getelementptr inbounds [256 x i8], [256 x i8]* %2, i64 0, i64 0
  %150 = call i32 (i8*, ...) @printf(i8* getelementptr inbounds ([3 x i8], [3 x i8]* @.str, i64 0, i64 0), i8* %149)
  br label %151

151:                                              ; preds = %148, %147
  ret i32 0
}

declare dso_local i32 @__isoc99_scanf(i8*, ...) #1

; Function Attrs: nounwind readonly
declare dso_local i64 @strlen(i8*) #2

declare dso_local i32 @printf(i8*, ...) #1


!llvm.module.flags = !{!0}
!llvm.ident = !{!1}

!0 = !{i32 1, !"wchar_size", i32 4}
!1 = !{!"clang version 10.0.0-4ubuntu1 "}
